; ModuleID = 'source-C-CXX/61/2239.cpp'
source_filename = "source-C-CXX/61/2239.cpp"
target datalayout = "e-m:e-p270:32:32-p271:32:32-p272:64:64-i64:64-f80:128-n8:16:32:64-S128"
target triple = "x86_64-pc-linux-gnu"

%"class.std::ios_base::Init" = type { i8 }
%"class.std::basic_istream" = type { i32 (...)**, i64, %"class.std::basic_ios" }
%"class.std::basic_ios" = type { %"class.std::ios_base", %"class.std::basic_ostream"*, i8, i8, %"class.std::basic_streambuf"*, %"class.std::ctype"*, %"class.std::num_put"*, %"class.std::num_get"* }
%"class.std::ios_base" = type { i32 (...)**, i64, i64, i32, i32, i32, %"struct.std::ios_base::_Callback_list"*, %"struct.std::ios_base::_Words", [8 x %"struct.std::ios_base::_Words"], i32, %"struct.std::ios_base::_Words"*, %"class.std::locale" }
%"struct.std::ios_base::_Callback_list" = type { %"struct.std::ios_base::_Callback_list"*, void (i32, %"class.std::ios_base"*, i32)*, i32, i32 }
%"struct.std::ios_base::_Words" = type { i8*, i64 }
%"class.std::locale" = type { %"class.std::locale::_Impl"* }
%"class.std::locale::_Impl" = type { i32, %"class.std::locale::facet"**, i64, %"class.std::locale::facet"**, i8** }
%"class.std::locale::facet" = type <{ i32 (...)**, i32, [4 x i8] }>
%"class.std::basic_ostream" = type { i32 (...)**, %"class.std::basic_ios" }
%"class.std::basic_streambuf" = type { i32 (...)**, i8*, i8*, i8*, i8*, i8*, i8*, %"class.std::locale" }
%"class.std::ctype" = type <{ %"class.std::locale::facet.base", [4 x i8], %struct.__locale_struct*, i8, [7 x i8], i32*, i32*, i16*, i8, [256 x i8], [256 x i8], i8, [6 x i8] }>
%"class.std::locale::facet.base" = type <{ i32 (...)**, i32 }>
%struct.__locale_struct = type { [13 x %struct.__locale_data*], i16*, i32*, i32*, [13 x i8*] }
%struct.__locale_data = type opaque
%"class.std::num_put" = type { %"class.std::locale::facet.base", [4 x i8] }
%"class.std::num_get" = type { %"class.std::locale::facet.base", [4 x i8] }

@_ZStL8__ioinit = internal global %"class.std::ios_base::Init" zeroinitializer, align 1
@__dso_handle = external hidden global i8
@_ZSt3cin = external global %"class.std::basic_istream", align 8
@_ZSt4cout = external global %"class.std::basic_ostream", align 8
@llvm.global_ctors = appending global [1 x { i32, void ()*, i8* }] [{ i32, void ()*, i8* } { i32 65535, void ()* @_GLOBAL__sub_I_2239.cpp, i8* null }]

declare void @_ZNSt8ios_base4InitC1Ev(%"class.std::ios_base::Init"* nonnull align 1 dereferenceable(1)) unnamed_addr #0

; Function Attrs: nounwind
declare void @_ZNSt8ios_base4InitD1Ev(%"class.std::ios_base::Init"* nonnull align 1 dereferenceable(1)) unnamed_addr #1

; Function Attrs: nofree nounwind
declare i32 @__cxa_atexit(void (i8*)*, i8*, i8*) local_unnamed_addr #2

; Function Attrs: mustprogress norecurse sspstrong uwtable
define dso_local i32 @main() local_unnamed_addr #3 {
  %1 = alloca i8, align 1
  %2 = alloca [5000 x i8], align 16
  %3 = getelementptr inbounds [5000 x i8], [5000 x i8]* %2, i64 0, i64 0
  call void @llvm.lifetime.start.p0i8(i64 5000, i8* nonnull %3) #8
  %4 = load i8*, i8** bitcast (%"class.std::basic_istream"* @_ZSt3cin to i8**), align 8, !tbaa !5
  %5 = getelementptr i8, i8* %4, i64 -24
  %6 = bitcast i8* %5 to i64*
  %7 = load i64, i64* %6, align 8
  %8 = add nsw i64 %7, 240
  %9 = getelementptr inbounds i8, i8* bitcast (%"class.std::basic_istream"* @_ZSt3cin to i8*), i64 %8
  %10 = bitcast i8* %9 to %"class.std::ctype"**
  %11 = load %"class.std::ctype"*, %"class.std::ctype"** %10, align 8, !tbaa !8
  %12 = icmp eq %"class.std::ctype"* %11, null
  br i1 %12, label %13, label %14

13:                                               ; preds = %0
  tail call void @_ZSt16__throw_bad_castv() #9
  unreachable

14:                                               ; preds = %0
  %15 = getelementptr inbounds %"class.std::ctype", %"class.std::ctype"* %11, i64 0, i32 8
  %16 = load i8, i8* %15, align 8, !tbaa !13
  %17 = icmp eq i8 %16, 0
  br i1 %17, label %21, label %18

18:                                               ; preds = %14
  %19 = getelementptr inbounds %"class.std::ctype", %"class.std::ctype"* %11, i64 0, i32 9, i64 10
  %20 = load i8, i8* %19, align 1, !tbaa !15
  br label %27

21:                                               ; preds = %14
  tail call void @_ZNKSt5ctypeIcE13_M_widen_initEv(%"class.std::ctype"* nonnull align 8 dereferenceable(570) %11)
  %22 = bitcast %"class.std::ctype"* %11 to i8 (%"class.std::ctype"*, i8)***
  %23 = load i8 (%"class.std::ctype"*, i8)**, i8 (%"class.std::ctype"*, i8)*** %22, align 8, !tbaa !5
  %24 = getelementptr inbounds i8 (%"class.std::ctype"*, i8)*, i8 (%"class.std::ctype"*, i8)** %23, i64 6
  %25 = load i8 (%"class.std::ctype"*, i8)*, i8 (%"class.std::ctype"*, i8)** %24, align 8
  %26 = tail call signext i8 %25(%"class.std::ctype"* nonnull align 8 dereferenceable(570) %11, i8 signext 10)
  br label %27

27:                                               ; preds = %18, %21
  %28 = phi i8 [ %20, %18 ], [ %26, %21 ]
  %29 = call nonnull align 8 dereferenceable(16) %"class.std::basic_istream"* @_ZNSi7getlineEPclc(%"class.std::basic_istream"* nonnull align 8 dereferenceable(16) @_ZSt3cin, i8* nonnull %3, i64 5000, i8 signext %28)
  %30 = call i64 @strlen(i8* noundef nonnull %3) #10
  %31 = trunc i64 %30 to i32
  %32 = icmp sgt i32 %31, 0
  br i1 %32, label %33, label %162

33:                                               ; preds = %27
  %34 = add i32 %31, -2
  %35 = add i32 %31, -2
  br label %40

36:                                               ; preds = %157
  %37 = icmp sgt i32 %158, 0
  br i1 %37, label %38, label %162

38:                                               ; preds = %36
  %39 = zext i32 %158 to i64
  br label %163

40:                                               ; preds = %33, %157
  %41 = phi i32 [ %160, %157 ], [ 0, %33 ]
  %42 = phi i32 [ %158, %157 ], [ %31, %33 ]
  %43 = sext i32 %41 to i64
  %44 = getelementptr inbounds [5000 x i8], [5000 x i8]* %2, i64 0, i64 %43
  %45 = load i8, i8* %44, align 1, !tbaa !15
  %46 = icmp eq i8 %45, 32
  br i1 %46, label %47, label %157

47:                                               ; preds = %40
  %48 = add nsw i32 %41, 1
  %49 = sext i32 %48 to i64
  %50 = getelementptr inbounds [5000 x i8], [5000 x i8]* %2, i64 0, i64 %49
  %51 = load i8, i8* %50, align 1, !tbaa !15
  %52 = icmp eq i8 %51, 32
  br i1 %52, label %53, label %157

53:                                               ; preds = %47
  %54 = icmp slt i32 %48, %31
  br i1 %54, label %55, label %146

55:                                               ; preds = %53
  %56 = sub i32 %34, %41
  %57 = zext i32 %56 to i64
  %58 = add nuw nsw i64 %57, 1
  %59 = icmp ult i32 %56, 7
  br i1 %59, label %144, label %60

60:                                               ; preds = %55
  %61 = icmp ult i32 %56, 31
  br i1 %61, label %124, label %62

62:                                               ; preds = %60
  %63 = and i64 %58, 8589934560
  %64 = add nsw i64 %63, -32
  %65 = lshr exact i64 %64, 5
  %66 = add nuw nsw i64 %65, 1
  %67 = and i64 %66, 1
  %68 = icmp eq i64 %64, 0
  br i1 %68, label %102, label %69

69:                                               ; preds = %62
  %70 = and i64 %66, 1152921504606846974
  br label %71

71:                                               ; preds = %71, %69
  %72 = phi i64 [ 0, %69 ], [ %99, %71 ]
  %73 = phi i64 [ %70, %69 ], [ %100, %71 ]
  %74 = add i64 %72, %49
  %75 = add nsw i64 %74, 1
  %76 = getelementptr inbounds [5000 x i8], [5000 x i8]* %2, i64 0, i64 %75
  %77 = bitcast i8* %76 to <16 x i8>*
  %78 = load <16 x i8>, <16 x i8>* %77, align 1, !tbaa !15
  %79 = getelementptr inbounds i8, i8* %76, i64 16
  %80 = bitcast i8* %79 to <16 x i8>*
  %81 = load <16 x i8>, <16 x i8>* %80, align 1, !tbaa !15
  %82 = getelementptr inbounds [5000 x i8], [5000 x i8]* %2, i64 0, i64 %74
  %83 = bitcast i8* %82 to <16 x i8>*
  store <16 x i8> %78, <16 x i8>* %83, align 1, !tbaa !15
  %84 = getelementptr inbounds i8, i8* %82, i64 16
  %85 = bitcast i8* %84 to <16 x i8>*
  store <16 x i8> %81, <16 x i8>* %85, align 1, !tbaa !15
  %86 = or i64 %72, 32
  %87 = add i64 %86, %49
  %88 = add nsw i64 %87, 1
  %89 = getelementptr inbounds [5000 x i8], [5000 x i8]* %2, i64 0, i64 %88
  %90 = bitcast i8* %89 to <16 x i8>*
  %91 = load <16 x i8>, <16 x i8>* %90, align 1, !tbaa !15
  %92 = getelementptr inbounds i8, i8* %89, i64 16
  %93 = bitcast i8* %92 to <16 x i8>*
  %94 = load <16 x i8>, <16 x i8>* %93, align 1, !tbaa !15
  %95 = getelementptr inbounds [5000 x i8], [5000 x i8]* %2, i64 0, i64 %87
  %96 = bitcast i8* %95 to <16 x i8>*
  store <16 x i8> %91, <16 x i8>* %96, align 1, !tbaa !15
  %97 = getelementptr inbounds i8, i8* %95, i64 16
  %98 = bitcast i8* %97 to <16 x i8>*
  store <16 x i8> %94, <16 x i8>* %98, align 1, !tbaa !15
  %99 = add nuw i64 %72, 64
  %100 = add i64 %73, -2
  %101 = icmp eq i64 %100, 0
  br i1 %101, label %102, label %71, !llvm.loop !16

102:                                              ; preds = %71, %62
  %103 = phi i64 [ 0, %62 ], [ %99, %71 ]
  %104 = icmp eq i64 %67, 0
  br i1 %104, label %118, label %105

105:                                              ; preds = %102
  %106 = add i64 %103, %49
  %107 = add nsw i64 %106, 1
  %108 = getelementptr inbounds [5000 x i8], [5000 x i8]* %2, i64 0, i64 %107
  %109 = bitcast i8* %108 to <16 x i8>*
  %110 = load <16 x i8>, <16 x i8>* %109, align 1, !tbaa !15
  %111 = getelementptr inbounds i8, i8* %108, i64 16
  %112 = bitcast i8* %111 to <16 x i8>*
  %113 = load <16 x i8>, <16 x i8>* %112, align 1, !tbaa !15
  %114 = getelementptr inbounds [5000 x i8], [5000 x i8]* %2, i64 0, i64 %106
  %115 = bitcast i8* %114 to <16 x i8>*
  store <16 x i8> %110, <16 x i8>* %115, align 1, !tbaa !15
  %116 = getelementptr inbounds i8, i8* %114, i64 16
  %117 = bitcast i8* %116 to <16 x i8>*
  store <16 x i8> %113, <16 x i8>* %117, align 1, !tbaa !15
  br label %118

118:                                              ; preds = %102, %105
  %119 = icmp eq i64 %58, %63
  br i1 %119, label %146, label %120

120:                                              ; preds = %118
  %121 = add nsw i64 %63, %49
  %122 = and i64 %58, 24
  %123 = icmp eq i64 %122, 0
  br i1 %123, label %144, label %124

124:                                              ; preds = %60, %120
  %125 = phi i64 [ %63, %120 ], [ 0, %60 ]
  %126 = sub i32 %35, %41
  %127 = zext i32 %126 to i64
  %128 = add nuw nsw i64 %127, 1
  %129 = and i64 %128, 8589934584
  %130 = add nsw i64 %129, %49
  br label %131

131:                                              ; preds = %131, %124
  %132 = phi i64 [ %125, %124 ], [ %140, %131 ]
  %133 = add i64 %132, %49
  %134 = add nsw i64 %133, 1
  %135 = getelementptr inbounds [5000 x i8], [5000 x i8]* %2, i64 0, i64 %134
  %136 = bitcast i8* %135 to <8 x i8>*
  %137 = load <8 x i8>, <8 x i8>* %136, align 1, !tbaa !15
  %138 = getelementptr inbounds [5000 x i8], [5000 x i8]* %2, i64 0, i64 %133
  %139 = bitcast i8* %138 to <8 x i8>*
  store <8 x i8> %137, <8 x i8>* %139, align 1, !tbaa !15
  %140 = add nuw i64 %132, 8
  %141 = icmp eq i64 %140, %129
  br i1 %141, label %142, label %131, !llvm.loop !19

142:                                              ; preds = %131
  %143 = icmp eq i64 %128, %129
  br i1 %143, label %146, label %144

144:                                              ; preds = %55, %120, %142
  %145 = phi i64 [ %49, %55 ], [ %121, %120 ], [ %130, %142 ]
  br label %149

146:                                              ; preds = %149, %118, %142, %53
  %147 = add nsw i32 %41, -1
  %148 = add nsw i32 %42, -1
  br label %157

149:                                              ; preds = %144, %149
  %150 = phi i64 [ %151, %149 ], [ %145, %144 ]
  %151 = add nsw i64 %150, 1
  %152 = getelementptr inbounds [5000 x i8], [5000 x i8]* %2, i64 0, i64 %151
  %153 = load i8, i8* %152, align 1, !tbaa !15
  %154 = getelementptr inbounds [5000 x i8], [5000 x i8]* %2, i64 0, i64 %150
  store i8 %153, i8* %154, align 1, !tbaa !15
  %155 = trunc i64 %151 to i32
  %156 = icmp eq i32 %155, %31
  br i1 %156, label %146, label %149, !llvm.loop !20

157:                                              ; preds = %40, %47, %146
  %158 = phi i32 [ %148, %146 ], [ %42, %47 ], [ %42, %40 ]
  %159 = phi i32 [ %147, %146 ], [ %41, %47 ], [ %41, %40 ]
  %160 = add nsw i32 %159, 1
  %161 = icmp slt i32 %160, %31
  br i1 %161, label %40, label %36, !llvm.loop !22

162:                                              ; preds = %163, %27, %36
  call void @llvm.lifetime.end.p0i8(i64 5000, i8* nonnull %3) #8
  ret i32 0

163:                                              ; preds = %38, %163
  %164 = phi i64 [ 0, %38 ], [ %168, %163 ]
  %165 = getelementptr inbounds [5000 x i8], [5000 x i8]* %2, i64 0, i64 %164
  %166 = load i8, i8* %165, align 1, !tbaa !15
  call void @llvm.lifetime.start.p0i8(i64 1, i8* nonnull %1)
  store i8 %166, i8* %1, align 1, !tbaa !15
  %167 = call nonnull align 8 dereferenceable(8) %"class.std::basic_ostream"* @_ZSt16__ostream_insertIcSt11char_traitsIcEERSt13basic_ostreamIT_T0_ES6_PKS3_l(%"class.std::basic_ostream"* nonnull align 8 dereferenceable(8) @_ZSt4cout, i8* nonnull %1, i64 1)
  call void @llvm.lifetime.end.p0i8(i64 1, i8* nonnull %1)
  %168 = add nuw nsw i64 %164, 1
  %169 = icmp eq i64 %168, %39
  br i1 %169, label %162, label %163, !llvm.loop !23
}

; Function Attrs: argmemonly mustprogress nofree nosync nounwind willreturn
declare void @llvm.lifetime.start.p0i8(i64 immarg, i8* nocapture) #4

; Function Attrs: argmemonly mustprogress nofree nounwind readonly willreturn
declare i64 @strlen(i8* nocapture) local_unnamed_addr #5

; Function Attrs: argmemonly mustprogress nofree nosync nounwind willreturn
declare void @llvm.lifetime.end.p0i8(i64 immarg, i8* nocapture) #4

declare nonnull align 8 dereferenceable(16) %"class.std::basic_istream"* @_ZNSi7getlineEPclc(%"class.std::basic_istream"* nonnull align 8 dereferenceable(16), i8*, i64, i8 signext) local_unnamed_addr #0

; Function Attrs: noreturn
declare void @_ZSt16__throw_bad_castv() local_unnamed_addr #6

declare void @_ZNKSt5ctypeIcE13_M_widen_initEv(%"class.std::ctype"* nonnull align 8 dereferenceable(570)) local_unnamed_addr #0

declare nonnull align 8 dereferenceable(8) %"class.std::basic_ostream"* @_ZSt16__ostream_insertIcSt11char_traitsIcEERSt13basic_ostreamIT_T0_ES6_PKS3_l(%"class.std::basic_ostream"* nonnull align 8 dereferenceable(8), i8*, i64) local_unnamed_addr #0

; Function Attrs: sspstrong uwtable
define internal void @_GLOBAL__sub_I_2239.cpp() #7 section ".text.startup" {
  tail call void @_ZNSt8ios_base4InitC1Ev(%"class.std::ios_base::Init"* nonnull align 1 dereferenceable(1) @_ZStL8__ioinit)
  %1 = tail call i32 @__cxa_atexit(void (i8*)* bitcast (void (%"class.std::ios_base::Init"*)* @_ZNSt8ios_base4InitD1Ev to void (i8*)*), i8* getelementptr inbounds (%"class.std::ios_base::Init", %"class.std::ios_base::Init"* @_ZStL8__ioinit, i64 0, i32 0), i8* nonnull @__dso_handle) #8
  ret void
}


!llvm.module.flags = !{!0, !1, !2, !3}
!llvm.ident = !{!4}

!0 = !{i32 1, !"wchar_size", i32 4}
!1 = !{i32 7, !"PIC Level", i32 2}
!2 = !{i32 7, !"PIE Level", i32 2}
!3 = !{i32 7, !"uwtable", i32 1}
!4 = !{!"clang version 13.0.0"}
!5 = !{!6, !6, i64 0}
!6 = !{!"vtable pointer", !7, i64 0}
!7 = !{!"Simple C++ TBAA"}
!8 = !{!9, !10, i64 240}
!9 = !{!"_ZTSSt9basic_iosIcSt11char_traitsIcEE", !10, i64 216, !11, i64 224, !12, i64 225, !10, i64 232, !10, i64 240, !10, i64 248, !10, i64 256}
!10 = !{!"any pointer", !11, i64 0}
!11 = !{!"omnipotent char", !7, i64 0}
!12 = !{!"bool", !11, i64 0}
!13 = !{!14, !11, i64 56}
!14 = !{!"_ZTSSt5ctypeIcE", !10, i64 16, !12, i64 24, !10, i64 32, !10, i64 40, !10, i64 48, !11, i64 56, !11, i64 57, !11, i64 313, !11, i64 569}
!15 = !{!11, !11, i64 0}
!16 = distinct !{!16, !17, !18}
!17 = !{!"llvm.loop.mustprogress"}
!18 = !{!"llvm.loop.isvectorized", i32 1}
!19 = distinct !{!19, !17, !18}
!20 = distinct !{!20, !17, !21, !18}
!21 = !{!"llvm.loop.unroll.runtime.disable"}
!22 = distinct !{!22, !17}
!23 = distinct !{!23, !17}
